; Function Attrs: mustprogress nounwind willreturn uwtable
define void @Gia_StoRefObj(ptr noundef readonly captures(none) %0, i32 noundef %1) local_unnamed_addr #5 {
  %3 = getelementptr inbounds nuw i8, ptr %0, i64 24
  %4 = load ptr, ptr %3, align 8, !tbaa !3
  %5 = getelementptr i8, ptr %4, i64 32
  %.val = load ptr, ptr %5, align 8, !tbaa !14
  %6 = sext i32 %1 to i64
  %7 = getelementptr inbounds %struct.Gia_Obj_t_, ptr %.val, i64 %6
  %8 = getelementptr inbounds nuw i8, ptr %0, i64 32
  %9 = load ptr, ptr %8, align 8, !tbaa !44
  %10 = getelementptr inbounds nuw i8, ptr %9, i64 4
  %11 = load i32, ptr %10, align 4, !tbaa !89
  %12 = load i32, ptr %9, align 8, !tbaa !90
  %13 = icmp eq i32 %11, %12
  br i1 %13, label %14, label %.Vec_IntGrow.exit10_crit_edge.i

.Vec_IntGrow.exit10_crit_edge.i:                  ; preds = %2
  %.phi.trans.insert.i = getelementptr inbounds nuw i8, ptr %9, i64 8
  %.pre.i = load ptr, ptr %.phi.trans.insert.i, align 8, !tbaa !36
  br label %Vec_IntPush.exit

14:                                               ; preds = %2
  %15 = icmp slt i32 %11, 16
  br i1 %15, label %16, label %24

16:                                               ; preds = %14
  %17 = getelementptr inbounds nuw i8, ptr %9, i64 8
  %18 = load ptr, ptr %17, align 8, !tbaa !36
  %.not9.i.i = icmp eq ptr %18, null
  br i1 %.not9.i.i, label %21, label %19

19:                                               ; preds = %16
  %20 = tail call dereferenceable_or_null(64) ptr @realloc(ptr noundef nonnull %18, i64 noundef 64) #27
  br label %Vec_IntGrow.exit.i

21:                                               ; preds = %16
  %22 = tail call noalias dereferenceable_or_null(64) ptr @malloc(i64 noundef 64) #28
  br label %Vec_IntGrow.exit.i

Vec_IntGrow.exit.i:                               ; preds = %21, %19
  %23 = phi ptr [ %20, %19 ], [ %22, %21 ]
  store ptr %23, ptr %17, align 8, !tbaa !36
  store i32 16, ptr %9, align 8, !tbaa !90
  br label %Vec_IntPush.exit

24:                                               ; preds = %14
  %25 = shl nuw nsw i32 %11, 1
  %26 = getelementptr inbounds nuw i8, ptr %9, i64 8
  %27 = load ptr, ptr %26, align 8, !tbaa !36
  %.not9.i9.i = icmp eq ptr %27, null
  %28 = zext nneg i32 %25 to i64
  %29 = shl nuw nsw i64 %28, 2
  br i1 %.not9.i9.i, label %32, label %30

30:                                               ; preds = %24
  %31 = tail call ptr @realloc(ptr noundef nonnull %27, i64 noundef %29) #27
  br label %34

32:                                               ; preds = %24
  %33 = tail call noalias ptr @malloc(i64 noundef %29) #28
  br label %34

34:                                               ; preds = %32, %30
  %35 = phi ptr [ %31, %30 ], [ %33, %32 ]
  store ptr %35, ptr %26, align 8, !tbaa !36
  store i32 %25, ptr %9, align 8, !tbaa !90
  br label %Vec_IntPush.exit

Vec_IntPush.exit:                                 ; preds = %.Vec_IntGrow.exit10_crit_edge.i, %Vec_IntGrow.exit.i, %34
  %36 = phi ptr [ %.pre.i, %.Vec_IntGrow.exit10_crit_edge.i ], [ %35, %34 ], [ %23, %Vec_IntGrow.exit.i ]
  %37 = load i32, ptr %10, align 4, !tbaa !89
  %38 = add nsw i32 %37, 1
  store i32 %38, ptr %10, align 4, !tbaa !89
  %39 = sext i32 %37 to i64
  %40 = getelementptr inbounds i32, ptr %36, i64 %39
  store i32 0, ptr %40, align 4, !tbaa !37
  %.val14 = load i64, ptr %7, align 4
  %41 = and i64 %.val14, 2147483648
  %.not.i = icmp eq i64 %41, 0
  %42 = and i64 %.val14, 536870911
  %43 = icmp ne i64 %42, 536870911
  %narrow.i = and i1 %.not.i, %43
  br i1 %narrow.i, label %44, label %55

44:                                               ; preds = %Vec_IntPush.exit
  %45 = load ptr, ptr %8, align 8, !tbaa !44
  %46 = trunc i64 %.val14 to i32
  %47 = and i32 %46, 536870911
  %48 = sub nsw i32 %1, %47
  %49 = getelementptr i8, ptr %45, i64 8
  %.val18 = load ptr, ptr %49, align 8, !tbaa !36
  %50 = sext i32 %48 to i64
  %51 = getelementptr inbounds i32, ptr %.val18, i64 %50
  %52 = load i32, ptr %51, align 4, !tbaa !37
  %53 = add nsw i32 %52, 1
  store i32 %53, ptr %51, align 4, !tbaa !37
  %.val17 = load i64, ptr %7, align 4
  %54 = lshr i64 %.val17, 32
  br label %.sink.split

55:                                               ; preds = %Vec_IntPush.exit
  %.not.i22 = icmp ne i64 %41, 0
  %narrow.i23 = and i1 %.not.i22, %43
  br i1 %narrow.i23, label %56, label %63

56:                                               ; preds = %55
  %57 = load ptr, ptr %8, align 8, !tbaa !44
  %58 = getelementptr i8, ptr %57, i64 8
  %.val20 = load ptr, ptr %58, align 8, !tbaa !36
  br label %.sink.split

.sink.split:                                      ; preds = %44, %56
  %.pn.in.in = phi i64 [ %.val14, %56 ], [ %54, %44 ]
  %.val20.sink = phi ptr [ %.val20, %56 ], [ %.val18, %44 ]
  %.pn.in = trunc i64 %.pn.in.in to i32
  %.pn = and i32 %.pn.in, 536870911
  %.sink = sub nsw i32 %1, %.pn
  %59 = sext i32 %.sink to i64
  %60 = getelementptr inbounds i32, ptr %.val20.sink, i64 %59
  %61 = load i32, ptr %60, align 4, !tbaa !37
  %62 = add nsw i32 %61, 1
  store i32 %62, ptr %60, align 4, !tbaa !37
  br label %63

63:                                               ; preds = %.sink.split, %55
  ret void
}